; Function Attrs: mustprogress uwtable
define void @_ZN10open_spiel9dou_dizhu13ChainOnlyHandEi(ptr dead_on_unwind noalias nocapture writable writeonly sret(%"struct.std::array") align 4 %0, i32 noundef %1) local_unnamed_addr #4 {
  tail call void @llvm.memset.p0.i64(ptr noundef nonnull align 4 dereferenceable(60) %0, i8 0, i64 60, i1 false)
  %3 = tail call { i64, i32 } @_ZN10open_spiel9dou_dizhu22GetChainOnlyHandParamsEi(i32 noundef %1)
  %.fca.0.extract = extractvalue { i64, i32 } %3, 0
  %.fca.1.extract = extractvalue { i64, i32 } %3, 1
  %.sroa.24.0.extract.shift = lshr i64 %.fca.0.extract, 32
  %.sroa.24.0.extract.trunc = trunc nuw i64 %.sroa.24.0.extract.shift to i32
  %4 = icmp sgt i32 %.fca.1.extract, 0
  br i1 %4, label %.lr.ph.preheader, label %._crit_edge

.lr.ph.preheader:                                 ; preds = %2
  %sext = shl i64 %.fca.0.extract, 32
  %5 = ashr exact i64 %sext, 32
  %wide.trip.count = zext nneg i32 %.fca.1.extract to i64
  br label %.lr.ph

.lr.ph:                                           ; preds = %.lr.ph.preheader, %.lr.ph
  %indvars.iv = phi i64 [ 0, %.lr.ph.preheader ], [ %indvars.iv.next, %.lr.ph ]
  %6 = add nsw i64 %indvars.iv, %5
  %7 = getelementptr inbounds [15 x i32], ptr %0, i64 0, i64 %6
  store i32 %.sroa.24.0.extract.trunc, ptr %7, align 4
  %indvars.iv.next = add nuw nsw i64 %indvars.iv, 1
  %exitcond.not = icmp eq i64 %indvars.iv.next, %wide.trip.count
  br i1 %exitcond.not, label %._crit_edge, label %.lr.ph, !llvm.loop !22

._crit_edge:                                      ; preds = %.lr.ph, %2
  ret void
}